target datalayout = "e-m:e-p270:32:32-p271:32:32-p272:64:64-i64:64-i128:128-f80:128-n8:16:32:64-S128"
target triple = "x86_64-pc-linux-gnu"

%struct.dt_pthread_mutex_t = type { %union.pthread_mutex_t }
%union.pthread_mutex_t = type { %struct.__pthread_mutex_s }
%struct.__pthread_mutex_s = type { i32, i32, i32, i32, i32, i16, i16, %struct.__pthread_internal_list }
%struct.__pthread_internal_list = type { ptr, ptr }
%struct._GList = type { ptr, ptr, ptr }
%struct.dt_iop_module_t = type { i32, ptr, ptr, ptr, ptr, ptr, ptr, ptr, ptr, ptr, ptr, ptr, ptr, ptr, ptr, ptr, ptr, ptr, ptr, ptr, ptr, ptr, ptr, ptr, ptr, ptr, ptr, ptr, ptr, ptr, ptr, ptr, ptr, ptr, ptr, ptr, ptr, ptr, ptr, ptr, ptr, ptr, ptr, ptr, ptr, ptr, ptr, ptr, ptr, ptr, ptr, ptr, ptr, ptr, ptr, ptr, ptr, [20 x i8], i32, i32, i32, i32, i32, i32, i32, [8 x i8], [4 x float], [4 x float], [4 x float], [4 x float], [4 x float], [4 x float], ptr, %struct.dt_dev_histogram_stats_t, [4 x i32], i32, i32, ptr, i32, i32, ptr, ptr, i32, ptr, %struct.dt_pthread_mutex_t, ptr, ptr, ptr, ptr, %struct.anon.14, ptr, ptr, ptr, ptr, ptr, ptr, ptr, i32, ptr, ptr, ptr, ptr, ptr, ptr, ptr, i32, ptr, i32, [128 x i8], i32, ptr, ptr, i32, [12 x i8] }
%struct.dt_dev_histogram_stats_t = type { i32, i64, i32, i32 }
%struct.anon.14 = type { %struct.anon.15, %struct.anon.16 }
%struct.anon.15 = type { ptr, ptr }
%struct.anon.16 = type { ptr, i32 }
%struct.dt_iop_module_so_t = type { %struct.dt_action_t, ptr, ptr, ptr, ptr, ptr, ptr, ptr, ptr, ptr, ptr, ptr, ptr, ptr, ptr, ptr, ptr, ptr, ptr, ptr, ptr, ptr, ptr, ptr, ptr, ptr, ptr, ptr, ptr, ptr, ptr, ptr, ptr, ptr, ptr, ptr, ptr, ptr, ptr, ptr, ptr, ptr, ptr, ptr, ptr, ptr, ptr, ptr, ptr, ptr, ptr, ptr, ptr, ptr, ptr, ptr, ptr, [20 x i8], ptr, i32, ptr, i32, i32 }
%struct.dt_action_t = type { i32, ptr, ptr, ptr, ptr, ptr }

@.str = private unnamed_addr constant [9 x i8] c"colorout\00", align 1
@.str.1 = private unnamed_addr constant [8 x i8] c"colorin\00", align 1

; Function Attrs: inlinehint nounwind uwtable
define internal i32 @dt_iop_module_is(ptr noundef %0, ptr noundef %1) #2 {
  %3 = alloca ptr, align 8
  %4 = alloca ptr, align 8
  store ptr %0, ptr %3, align 8, !tbaa !117
  store ptr %1, ptr %4, align 8, !tbaa !28
  %5 = load ptr, ptr %3, align 8, !tbaa !117
  %6 = getelementptr inbounds nuw %struct.dt_iop_module_so_t, ptr %5, i32 0, i32 57
  %7 = getelementptr inbounds [20 x i8], ptr %6, i64 0, i64 0
  %8 = load ptr, ptr %4, align 8, !tbaa !28
  %9 = call i32 @g_strcmp0(ptr noundef %7, ptr noundef %8)
  %10 = icmp ne i32 %9, 0
  %11 = xor i1 %10, true
  %12 = zext i1 %11 to i32
  ret i32 %12
}

; Function Attrs: nounwind uwtable
define ptr @dt_ioppr_get_iop_work_profile_info(ptr noundef %0, ptr noundef %1) #0 {
  %3 = alloca ptr, align 8
  %4 = alloca ptr, align 8
  %5 = alloca ptr, align 8
  %6 = alloca i32, align 4
  %7 = alloca ptr, align 8
  %8 = alloca i32, align 4
  %9 = alloca ptr, align 8
  %10 = alloca i32, align 4
  %11 = alloca ptr, align 8
  %12 = alloca ptr, align 8
  store ptr %0, ptr %3, align 8, !tbaa !104
  store ptr %1, ptr %4, align 8, !tbaa !63
  call void @llvm.lifetime.start.p0(i64 8, ptr %5) #10
  store ptr null, ptr %5, align 8, !tbaa !6
  call void @llvm.lifetime.start.p0(i64 4, ptr %6) #10
  store i32 0, ptr %6, align 4, !tbaa !11
  call void @llvm.lifetime.start.p0(i64 8, ptr %7) #10
  %13 = load ptr, ptr %4, align 8, !tbaa !63
  store ptr %13, ptr %7, align 8, !tbaa !63
  br label %14

14:                                               ; preds = %57, %2
  %15 = load ptr, ptr %7, align 8, !tbaa !63
  %16 = icmp ne ptr %15, null
  br i1 %16, label %18, label %17

17:                                               ; preds = %14
  store i32 2, ptr %8, align 4
  br label %59

18:                                               ; preds = %14
  call void @llvm.lifetime.start.p0(i64 8, ptr %9) #10
  %19 = load ptr, ptr %7, align 8, !tbaa !63
  %20 = getelementptr inbounds nuw %struct._GList, ptr %19, i32 0, i32 0
  %21 = load ptr, ptr %20, align 8, !tbaa !64
  store ptr %21, ptr %9, align 8, !tbaa !104
  %22 = load ptr, ptr %9, align 8, !tbaa !104
  %23 = getelementptr inbounds nuw %struct.dt_iop_module_t, ptr %22, i32 0, i32 106
  %24 = load ptr, ptr %23, align 16, !tbaa !105
  %25 = load ptr, ptr %3, align 8, !tbaa !104
  %26 = getelementptr inbounds nuw %struct.dt_iop_module_t, ptr %25, i32 0, i32 57
  %27 = getelementptr inbounds [20 x i8], ptr %26, i64 0, i64 0
  %28 = call i32 @dt_iop_module_is(ptr noundef %24, ptr noundef %27)
  %29 = icmp ne i32 %28, 0
  br i1 %29, label %30, label %31

30:                                               ; preds = %18
  store i32 2, ptr %8, align 4
  br label %46

31:                                               ; preds = %18
  %32 = load ptr, ptr %9, align 8, !tbaa !104
  %33 = getelementptr inbounds nuw %struct.dt_iop_module_t, ptr %32, i32 0, i32 106
  %34 = load ptr, ptr %33, align 16, !tbaa !105
  %35 = call i32 @dt_iop_module_is(ptr noundef %34, ptr noundef @.str)
  %36 = icmp ne i32 %35, 0
  br i1 %36, label %37, label %38

37:                                               ; preds = %31
  store i32 0, ptr %6, align 4, !tbaa !11
  store i32 2, ptr %8, align 4
  br label %46

38:                                               ; preds = %31
  %39 = load ptr, ptr %9, align 8, !tbaa !104
  %40 = getelementptr inbounds nuw %struct.dt_iop_module_t, ptr %39, i32 0, i32 106
  %41 = load ptr, ptr %40, align 16, !tbaa !105
  %42 = call i32 @dt_iop_module_is(ptr noundef %41, ptr noundef @.str.1)
  %43 = icmp ne i32 %42, 0
  br i1 %43, label %44, label %45

44:                                               ; preds = %38
  store i32 1, ptr %6, align 4, !tbaa !11
  store i32 2, ptr %8, align 4
  br label %46

45:                                               ; preds = %38
  store i32 0, ptr %8, align 4
  br label %46

46:                                               ; preds = %45, %44, %37, %30
  call void @llvm.lifetime.end.p0(i64 8, ptr %9) #10
  %47 = load i32, ptr %8, align 4
  switch i32 %47, label %59 [
    i32 0, label %48
  ]

48:                                               ; preds = %46
  br label %49

49:                                               ; preds = %48
  %50 = load ptr, ptr %7, align 8, !tbaa !63
  %51 = icmp ne ptr %50, null
  br i1 %51, label %52, label %56

52:                                               ; preds = %49
  %53 = load ptr, ptr %7, align 8, !tbaa !63
  %54 = getelementptr inbounds nuw %struct._GList, ptr %53, i32 0, i32 1
  %55 = load ptr, ptr %54, align 8, !tbaa !66
  br label %57

56:                                               ; preds = %49
  br label %57

57:                                               ; preds = %56, %52
  %58 = phi ptr [ %55, %52 ], [ null, %56 ]
  store ptr %58, ptr %7, align 8, !tbaa !63
  br label %14

59:                                               ; preds = %46, %17
  call void @llvm.lifetime.end.p0(i64 8, ptr %7) #10
  br label %60

60:                                               ; preds = %59
  %61 = load i32, ptr %6, align 4, !tbaa !11
  %62 = icmp ne i32 %61, 0
  br i1 %62, label %63, label %76

63:                                               ; preds = %60
  call void @llvm.lifetime.start.p0(i64 4, ptr %10) #10
  store i32 -1, ptr %10, align 4, !tbaa !11
  call void @llvm.lifetime.start.p0(i64 8, ptr %11) #10
  store ptr null, ptr %11, align 8, !tbaa !28
  call void @llvm.lifetime.start.p0(i64 8, ptr %12) #10
  %64 = load ptr, ptr %3, align 8, !tbaa !104
  %65 = getelementptr inbounds nuw %struct.dt_iop_module_t, ptr %64, i32 0, i32 77
  %66 = load ptr, ptr %65, align 8, !tbaa !116
  store ptr %66, ptr %12, align 8, !tbaa !26
  %67 = load ptr, ptr %12, align 8, !tbaa !26
  call void @dt_ioppr_get_work_profile_type(ptr noundef %67, ptr noundef %10, ptr noundef %11)
  %68 = load ptr, ptr %11, align 8, !tbaa !28
  %69 = icmp ne ptr %68, null
  br i1 %69, label %70, label %75

70:                                               ; preds = %63
  %71 = load ptr, ptr %12, align 8, !tbaa !26
  %72 = load i32, ptr %10, align 4, !tbaa !11
  %73 = load ptr, ptr %11, align 8, !tbaa !28
  %74 = call ptr @dt_ioppr_add_profile_info_to_list(ptr noundef %71, i32 noundef %72, ptr noundef %73, i32 noundef 0)
  store ptr %74, ptr %5, align 8, !tbaa !6
  br label %75

75:                                               ; preds = %70, %63
  call void @llvm.lifetime.end.p0(i64 8, ptr %12) #10
  call void @llvm.lifetime.end.p0(i64 8, ptr %11) #10
  call void @llvm.lifetime.end.p0(i64 4, ptr %10) #10
  br label %76

76:                                               ; preds = %75, %60
  %77 = load ptr, ptr %5, align 8, !tbaa !6
  store i32 1, ptr %8, align 4
  call void @llvm.lifetime.end.p0(i64 4, ptr %6) #10
  call void @llvm.lifetime.end.p0(i64 8, ptr %5) #10
  ret ptr %77
}