; Function Attrs: nounwind uwtable
define noundef ptr @dt_ioppr_get_iop_work_profile_info(ptr noundef %0, ptr noundef readonly %1) local_unnamed_addr #0 {
  %3 = alloca i32, align 4
  %4 = alloca ptr, align 8
  %.not30 = icmp eq ptr %1, null
  br i1 %.not30, label %.thread.thread, label %.lr.ph

.lr.ph:                                           ; preds = %2
  %5 = getelementptr inbounds nuw i8, ptr %0, i64 456
  br label %6

6:                                                ; preds = %.lr.ph, %20
  %.01731 = phi ptr [ %1, %.lr.ph ], [ %22, %20 ]
  %7 = load ptr, ptr %.01731, align 8, !tbaa !23
  %8 = getelementptr inbounds nuw i8, ptr %7, i64 944
  %9 = load ptr, ptr %8, align 16, !tbaa !94
  %10 = getelementptr inbounds nuw i8, ptr %9, i64 496
  %11 = tail call i32 @g_strcmp0(ptr noundef nonnull %10, ptr noundef nonnull %5) #17
  %.not.i.not = icmp eq i32 %11, 0
  br i1 %.not.i.not, label %.thread.thread, label %12

12:                                               ; preds = %6
  %13 = load ptr, ptr %8, align 16, !tbaa !94
  %14 = getelementptr inbounds nuw i8, ptr %13, i64 496
  %15 = tail call i32 @g_strcmp0(ptr noundef nonnull %14, ptr noundef nonnull @.str) #17
  %.not.i24.not = icmp eq i32 %15, 0
  br i1 %.not.i24.not, label %.thread.thread, label %16

16:                                               ; preds = %12
  %17 = load ptr, ptr %8, align 16, !tbaa !94
  %18 = getelementptr inbounds nuw i8, ptr %17, i64 496
  %19 = tail call i32 @g_strcmp0(ptr noundef nonnull %18, ptr noundef nonnull @.str.1) #17
  %.not.i25.not = icmp eq i32 %19, 0
  br i1 %.not.i25.not, label %.critedge, label %20

20:                                               ; preds = %16
  %21 = getelementptr inbounds nuw i8, ptr %.01731, i64 8
  %22 = load ptr, ptr %21, align 8, !tbaa !105
  %.not = icmp eq ptr %22, null
  br i1 %.not, label %.thread.thread, label %6

.critedge:                                        ; preds = %16
  call void @llvm.lifetime.start.p0(i64 4, ptr nonnull %3) #17
  call void @llvm.lifetime.start.p0(i64 8, ptr nonnull %4) #17
  %23 = getelementptr inbounds nuw i8, ptr %0, i64 664
  %24 = load ptr, ptr %23, align 8, !tbaa !106
  call void @dt_ioppr_get_work_profile_type(ptr noundef %24, ptr noundef nonnull %3, ptr noundef nonnull %4)
  %25 = load ptr, ptr %4, align 8, !tbaa !107
  %.not23 = icmp eq ptr %25, null
  br i1 %.not23, label %29, label %26

26:                                               ; preds = %.critedge
  %27 = load i32, ptr %3, align 4, !tbaa !108
  %28 = tail call ptr @dt_ioppr_add_profile_info_to_list(ptr noundef %24, i32 noundef %27, ptr noundef nonnull %25, i32 noundef 0)
  br label %29

29:                                               ; preds = %26, %.critedge
  %.1 = phi ptr [ %28, %26 ], [ null, %.critedge ]
  call void @llvm.lifetime.end.p0(i64 8, ptr nonnull %4) #17
  call void @llvm.lifetime.end.p0(i64 4, ptr nonnull %3) #17
  br label %.thread.thread

.thread.thread:                                   ; preds = %12, %6, %20, %2, %29
  %.0 = phi ptr [ %.1, %29 ], [ null, %2 ], [ null, %20 ], [ null, %6 ], [ null, %12 ]
  ret ptr %.0
}